target datalayout = "e-m:e-p270:32:32-p271:32:32-p272:64:64-i64:64-i128:128-f80:128-n8:16:32:64-S128"
target triple = "x86_64-pc-linux-gnu"

@hf_ipmi_se_cp12_byte1 = internal global i32 0, align 4
@hf_ipmi_se_cp12_alert_stringsel = internal global i32 0, align 4
@hf_ipmi_se_cp12_evfilter = internal global i32 0, align 4
@hf_ipmi_se_cp12_alert_stringset = internal global i32 0, align 4
@ett_ipmi_se_cp12_byte1 = internal global i32 0, align 4

; Function Attrs: null_pointer_is_valid sspstrong uwtable
define internal void @cfgparam_12(ptr noundef %0, ptr noundef %1, ptr noundef %2) #0 {
  %4 = alloca ptr, align 8
  %5 = alloca ptr, align 8
  %6 = alloca ptr, align 8
  %7 = alloca ptr, align 8
  %8 = alloca ptr, align 8
  store ptr %0, ptr %4, align 8
  store ptr %1, ptr %5, align 8
  store ptr %2, ptr %6, align 8
  call void @llvm.lifetime.start.p0(i64 8, ptr %7) #5
  call void @llvm.lifetime.start.p0(i64 8, ptr %8) #5
  %9 = load ptr, ptr %6, align 8
  %10 = load i32, ptr @hf_ipmi_se_cp12_byte1, align 4
  %11 = load ptr, ptr %4, align 8
  %12 = call ptr @proto_tree_add_item(ptr noundef %9, i32 noundef %10, ptr noundef %11, i32 noundef 0, i32 noundef 1, i32 noundef -2147483648)
  store ptr %12, ptr %7, align 8
  %13 = load ptr, ptr %7, align 8
  %14 = load i32, ptr @ett_ipmi_se_cp12_byte1, align 4
  %15 = call ptr @proto_item_add_subtree(ptr noundef %13, i32 noundef %14)
  store ptr %15, ptr %8, align 8
  %16 = load ptr, ptr %8, align 8
  %17 = load i32, ptr @hf_ipmi_se_cp12_alert_stringsel, align 4
  %18 = load ptr, ptr %4, align 8
  %19 = call ptr @proto_tree_add_item(ptr noundef %16, i32 noundef %17, ptr noundef %18, i32 noundef 0, i32 noundef 1, i32 noundef -2147483648)
  %20 = load ptr, ptr %6, align 8
  %21 = load i32, ptr @hf_ipmi_se_cp12_evfilter, align 4
  %22 = load ptr, ptr %4, align 8
  %23 = call ptr @proto_tree_add_item(ptr noundef %20, i32 noundef %21, ptr noundef %22, i32 noundef 1, i32 noundef 1, i32 noundef -2147483648)
  %24 = load ptr, ptr %6, align 8
  %25 = load i32, ptr @hf_ipmi_se_cp12_alert_stringset, align 4
  %26 = load ptr, ptr %4, align 8
  %27 = call ptr @proto_tree_add_item(ptr noundef %24, i32 noundef %25, ptr noundef %26, i32 noundef 2, i32 noundef 1, i32 noundef -2147483648)
  call void @llvm.lifetime.end.p0(i64 8, ptr %8) #5
  call void @llvm.lifetime.end.p0(i64 8, ptr %7) #5
  ret void
}